target datalayout = "e-m:e-p270:32:32-p271:32:32-p272:64:64-i64:64-i128:128-f80:128-n8:16:32:64-S128"
target triple = "x86_64-pc-linux-gnu"

%struct.pmix_list_t = type { %struct.pmix_object_t, %struct.pmix_list_item_t, i64 }
%struct.pmix_object_t = type { %union.pthread_mutex_t, ptr, i32, %struct.pmix_tma }
%union.pthread_mutex_t = type { %struct.__pthread_mutex_s }
%struct.__pthread_mutex_s = type { i32, i32, i32, i32, i32, i16, i16, %struct.__pthread_internal_list }
%struct.__pthread_internal_list = type { ptr, ptr }
%struct.pmix_tma = type { ptr, ptr, ptr, ptr, ptr, ptr, ptr, ptr }
%struct.pmix_list_item_t = type { %struct.pmix_object_t, ptr, ptr, i32 }
%struct.pmix_mca_base_var_file_value_t = type { %struct.pmix_list_item_t, ptr, ptr, ptr, i32 }

@myenvars = internal global %struct.pmix_list_t zeroinitializer, align 8
@.str.24 = private unnamed_addr constant [12 x i8] c"OMPI_MCA_%s\00", align 1
@ompi_frameworks = internal global ptr @ompi_frameworks_static_5_0_0, align 8
@ompi_frameworks_setup = internal global i8 0, align 1
@.str.25 = private unnamed_addr constant [18 x i8] c"OMPI_MCA_PREFIXES\00", align 1

; Function Attrs: inlinehint nounwind uwtable
define internal void @_pmix_list_append(ptr noundef %0, ptr noundef %1) #2 {
  %3 = alloca ptr, align 8
  %4 = alloca ptr, align 8
  %5 = alloca ptr, align 8
  store ptr %0, ptr %3, align 8, !tbaa !37
  store ptr %1, ptr %4, align 8, !tbaa !26
  call void @llvm.lifetime.start.p0(i64 8, ptr %5) #12
  %6 = load ptr, ptr %3, align 8, !tbaa !37
  %7 = getelementptr inbounds nuw %struct.pmix_list_t, ptr %6, i32 0, i32 1
  store ptr %7, ptr %5, align 8, !tbaa !26
  %8 = load ptr, ptr %5, align 8, !tbaa !26
  %9 = getelementptr inbounds nuw %struct.pmix_list_item_t, ptr %8, i32 0, i32 2
  %10 = load ptr, ptr %9, align 8, !tbaa !158
  %11 = load ptr, ptr %4, align 8, !tbaa !26
  %12 = getelementptr inbounds nuw %struct.pmix_list_item_t, ptr %11, i32 0, i32 2
  store ptr %10, ptr %12, align 8, !tbaa !158
  %13 = load ptr, ptr %4, align 8, !tbaa !26
  %14 = load ptr, ptr %5, align 8, !tbaa !26
  %15 = getelementptr inbounds nuw %struct.pmix_list_item_t, ptr %14, i32 0, i32 2
  %16 = load ptr, ptr %15, align 8, !tbaa !158
  %17 = getelementptr inbounds nuw %struct.pmix_list_item_t, ptr %16, i32 0, i32 1
  store volatile ptr %13, ptr %17, align 8, !tbaa !53
  %18 = load ptr, ptr %5, align 8, !tbaa !26
  %19 = load ptr, ptr %4, align 8, !tbaa !26
  %20 = getelementptr inbounds nuw %struct.pmix_list_item_t, ptr %19, i32 0, i32 1
  store ptr %18, ptr %20, align 8, !tbaa !53
  %21 = load ptr, ptr %4, align 8, !tbaa !26
  %22 = load ptr, ptr %5, align 8, !tbaa !26
  %23 = getelementptr inbounds nuw %struct.pmix_list_item_t, ptr %22, i32 0, i32 2
  store ptr %21, ptr %23, align 8, !tbaa !158
  %24 = load ptr, ptr %3, align 8, !tbaa !37
  %25 = getelementptr inbounds nuw %struct.pmix_list_t, ptr %24, i32 0, i32 2
  %26 = load volatile i64, ptr %25, align 8, !tbaa !157
  %27 = add i64 %26, 1
  store volatile i64 %27, ptr %25, align 8, !tbaa !157
  call void @llvm.lifetime.end.p0(i64 8, ptr %5) #12
  ret void
}

; Function Attrs: inlinehint nounwind uwtable
define internal ptr @pmix_list_remove_item(ptr noundef %0, ptr noundef %1) #2 {
  %3 = alloca ptr, align 8
  %4 = alloca ptr, align 8
  store ptr %0, ptr %3, align 8, !tbaa !37
  store ptr %1, ptr %4, align 8, !tbaa !26
  %5 = load ptr, ptr %4, align 8, !tbaa !26
  %6 = getelementptr inbounds nuw %struct.pmix_list_item_t, ptr %5, i32 0, i32 1
  %7 = load ptr, ptr %6, align 8, !tbaa !53
  %8 = load ptr, ptr %4, align 8, !tbaa !26
  %9 = getelementptr inbounds nuw %struct.pmix_list_item_t, ptr %8, i32 0, i32 2
  %10 = load ptr, ptr %9, align 8, !tbaa !158
  %11 = getelementptr inbounds nuw %struct.pmix_list_item_t, ptr %10, i32 0, i32 1
  store volatile ptr %7, ptr %11, align 8, !tbaa !53
  %12 = load ptr, ptr %4, align 8, !tbaa !26
  %13 = getelementptr inbounds nuw %struct.pmix_list_item_t, ptr %12, i32 0, i32 2
  %14 = load ptr, ptr %13, align 8, !tbaa !158
  %15 = load ptr, ptr %4, align 8, !tbaa !26
  %16 = getelementptr inbounds nuw %struct.pmix_list_item_t, ptr %15, i32 0, i32 1
  %17 = load ptr, ptr %16, align 8, !tbaa !53
  %18 = getelementptr inbounds nuw %struct.pmix_list_item_t, ptr %17, i32 0, i32 2
  store volatile ptr %14, ptr %18, align 8, !tbaa !158
  %19 = load ptr, ptr %3, align 8, !tbaa !37
  %20 = getelementptr inbounds nuw %struct.pmix_list_t, ptr %19, i32 0, i32 2
  %21 = load volatile i64, ptr %20, align 8, !tbaa !157
  %22 = add i64 %21, -1
  store volatile i64 %22, ptr %20, align 8, !tbaa !157
  %23 = load ptr, ptr %4, align 8, !tbaa !26
  %24 = getelementptr inbounds nuw %struct.pmix_list_item_t, ptr %23, i32 0, i32 2
  %25 = load ptr, ptr %24, align 8, !tbaa !158
  ret ptr %25
}

; Function Attrs: nounwind uwtable
define internal void @setup_ompi_frameworks() #0 {
  %1 = alloca ptr, align 8
  %2 = alloca i32, align 4
  %3 = alloca ptr, align 8
  %4 = load i8, ptr @ompi_frameworks_setup, align 1, !tbaa !81, !range !83, !noundef !84
  %5 = trunc i8 %4 to i1
  br i1 %5, label %6, label %7

6:                                                ; preds = %0
  br label %22

7:                                                ; preds = %0
  store i8 1, ptr @ompi_frameworks_setup, align 1, !tbaa !81
  call void @llvm.lifetime.start.p0(i64 8, ptr %1) #12
  %8 = call ptr @getenv(ptr noundef @.str.25) #12
  store ptr %8, ptr %1, align 8, !tbaa !43
  %9 = load ptr, ptr %1, align 8, !tbaa !43
  %10 = icmp eq ptr null, %9
  br i1 %10, label %11, label %12

11:                                               ; preds = %7
  store i32 1, ptr %2, align 4
  br label %20

12:                                               ; preds = %7
  call void @llvm.lifetime.start.p0(i64 8, ptr %3) #12
  %13 = load ptr, ptr %1, align 8, !tbaa !43
  %14 = call ptr @PMIx_Argv_split(ptr noundef %13, i32 noundef 44)
  store ptr %14, ptr %3, align 8, !tbaa !41
  %15 = load ptr, ptr %3, align 8, !tbaa !41
  %16 = icmp ne ptr null, %15
  br i1 %16, label %17, label %19

17:                                               ; preds = %12
  %18 = load ptr, ptr %3, align 8, !tbaa !41
  store ptr %18, ptr @ompi_frameworks, align 8, !tbaa !41
  br label %19

19:                                               ; preds = %17, %12
  call void @llvm.lifetime.end.p0(i64 8, ptr %3) #12
  store i32 0, ptr %2, align 4
  br label %20

20:                                               ; preds = %19, %11
  call void @llvm.lifetime.end.p0(i64 8, ptr %1) #12
  %21 = load i32, ptr %2, align 4
  switch i32 %21, label %23 [
    i32 0, label %22
    i32 1, label %22
  ]

22:                                               ; preds = %6, %20, %20
  ret void

23:                                               ; preds = %20
  unreachable
}

; Function Attrs: nounwind uwtable
define internal void @parse_file_envars(ptr noundef %0) #0 {
  %2 = alloca ptr, align 8
  %3 = alloca ptr, align 8
  %4 = alloca ptr, align 8
  %5 = alloca ptr, align 8
  %6 = alloca i32, align 4
  %7 = alloca i32, align 4
  store ptr %0, ptr %2, align 8, !tbaa !37
  call void @llvm.lifetime.start.p0(i64 8, ptr %3) #12
  call void @llvm.lifetime.start.p0(i64 8, ptr %4) #12
  call void @llvm.lifetime.start.p0(i64 8, ptr %5) #12
  call void @setup_ompi_frameworks()
  %8 = load ptr, ptr %2, align 8, !tbaa !37
  %9 = getelementptr inbounds nuw %struct.pmix_list_t, ptr %8, i32 0, i32 1
  %10 = getelementptr inbounds nuw %struct.pmix_list_item_t, ptr %9, i32 0, i32 1
  %11 = load ptr, ptr %10, align 8, !tbaa !46
  store ptr %11, ptr %3, align 8, !tbaa !72
  %12 = load ptr, ptr %3, align 8, !tbaa !72
  %13 = getelementptr inbounds nuw %struct.pmix_list_item_t, ptr %12, i32 0, i32 1
  %14 = load ptr, ptr %13, align 8, !tbaa !53
  store ptr %14, ptr %4, align 8, !tbaa !72
  br label %15

15:                                               ; preds = %69, %1
  %16 = load ptr, ptr %3, align 8, !tbaa !72
  %17 = load ptr, ptr %2, align 8, !tbaa !37
  %18 = getelementptr inbounds nuw %struct.pmix_list_t, ptr %17, i32 0, i32 1
  %19 = icmp ne ptr %16, %18
  br i1 %19, label %20, label %74

20:                                               ; preds = %15
  call void @llvm.lifetime.start.p0(i64 4, ptr %6) #12
  store i32 0, ptr %6, align 4, !tbaa !21
  br label %21

21:                                               ; preds = %64, %20
  %22 = load ptr, ptr @ompi_frameworks, align 8, !tbaa !41
  %23 = load i32, ptr %6, align 4, !tbaa !21
  %24 = sext i32 %23 to i64
  %25 = getelementptr inbounds ptr, ptr %22, i64 %24
  %26 = load ptr, ptr %25, align 8, !tbaa !43
  %27 = icmp ne ptr null, %26
  br i1 %27, label %29, label %28

28:                                               ; preds = %21
  store i32 5, ptr %7, align 4
  br label %67

29:                                               ; preds = %21
  %30 = load ptr, ptr %3, align 8, !tbaa !72
  %31 = getelementptr inbounds nuw %struct.pmix_mca_base_var_file_value_t, ptr %30, i32 0, i32 1
  %32 = load ptr, ptr %31, align 8, !tbaa !74
  %33 = load ptr, ptr @ompi_frameworks, align 8, !tbaa !41
  %34 = load i32, ptr %6, align 4, !tbaa !21
  %35 = sext i32 %34 to i64
  %36 = getelementptr inbounds ptr, ptr %33, i64 %35
  %37 = load ptr, ptr %36, align 8, !tbaa !43
  %38 = load ptr, ptr @ompi_frameworks, align 8, !tbaa !41
  %39 = load i32, ptr %6, align 4, !tbaa !21
  %40 = sext i32 %39 to i64
  %41 = getelementptr inbounds ptr, ptr %38, i64 %40
  %42 = load ptr, ptr %41, align 8, !tbaa !43
  %43 = call i64 @strlen(ptr noundef %42) #13
  %44 = call i32 @strncmp(ptr noundef %32, ptr noundef %37, i64 noundef %43) #13
  %45 = icmp eq i32 0, %44
  br i1 %45, label %46, label %63

46:                                               ; preds = %29
  %47 = load ptr, ptr %2, align 8, !tbaa !37
  %48 = load ptr, ptr %3, align 8, !tbaa !72
  %49 = getelementptr inbounds nuw %struct.pmix_mca_base_var_file_value_t, ptr %48, i32 0, i32 0
  %50 = call ptr @pmix_list_remove_item(ptr noundef %47, ptr noundef %49)
  %51 = load ptr, ptr %3, align 8, !tbaa !72
  %52 = getelementptr inbounds nuw %struct.pmix_mca_base_var_file_value_t, ptr %51, i32 0, i32 1
  %53 = load ptr, ptr %52, align 8, !tbaa !74
  %54 = call i32 (ptr, ptr, ...) @pmix_asprintf(ptr noundef %5, ptr noundef @.str.24, ptr noundef %53)
  %55 = load ptr, ptr %3, align 8, !tbaa !72
  %56 = getelementptr inbounds nuw %struct.pmix_mca_base_var_file_value_t, ptr %55, i32 0, i32 1
  %57 = load ptr, ptr %56, align 8, !tbaa !74
  call void @free(ptr noundef %57) #12
  %58 = load ptr, ptr %5, align 8, !tbaa !43
  %59 = load ptr, ptr %3, align 8, !tbaa !72
  %60 = getelementptr inbounds nuw %struct.pmix_mca_base_var_file_value_t, ptr %59, i32 0, i32 1
  store ptr %58, ptr %60, align 8, !tbaa !74
  %61 = load ptr, ptr %3, align 8, !tbaa !72
  %62 = getelementptr inbounds nuw %struct.pmix_mca_base_var_file_value_t, ptr %61, i32 0, i32 0
  call void @_pmix_list_append(ptr noundef @myenvars, ptr noundef %62)
  store i32 5, ptr %7, align 4
  br label %67

63:                                               ; preds = %29
  br label %64

64:                                               ; preds = %63
  %65 = load i32, ptr %6, align 4, !tbaa !21
  %66 = add nsw i32 %65, 1
  store i32 %66, ptr %6, align 4, !tbaa !21
  br label %21, !llvm.loop !78

67:                                               ; preds = %46, %28
  call void @llvm.lifetime.end.p0(i64 4, ptr %6) #12
  br label %68

68:                                               ; preds = %67
  br label %69

69:                                               ; preds = %68
  %70 = load ptr, ptr %4, align 8, !tbaa !72
  store ptr %70, ptr %3, align 8, !tbaa !72
  %71 = load ptr, ptr %3, align 8, !tbaa !72
  %72 = getelementptr inbounds nuw %struct.pmix_list_item_t, ptr %71, i32 0, i32 1
  %73 = load ptr, ptr %72, align 8, !tbaa !53
  store ptr %73, ptr %4, align 8, !tbaa !72
  br label %15, !llvm.loop !79

74:                                               ; preds = %15
  call void @llvm.lifetime.end.p0(i64 8, ptr %5) #12
  call void @llvm.lifetime.end.p0(i64 8, ptr %4) #12
  call void @llvm.lifetime.end.p0(i64 8, ptr %3) #12
  ret void
}