; Function Attrs: nounwind uwtable
define internal void @parse_file_envars(ptr noundef %0) #0 {
  %2 = alloca ptr, align 8
  call void @llvm.lifetime.start.p0(i64 8, ptr nonnull %2) #17
  %.b5.i = load i1, ptr @ompi_frameworks_setup, align 1
  br i1 %.b5.i, label %setup_ompi_frameworks.exit, label %3

3:                                                ; preds = %1
  store i1 true, ptr @ompi_frameworks_setup, align 1
  %4 = tail call ptr @getenv(ptr noundef nonnull @.str.25) #17
  %5 = icmp eq ptr %4, null
  br i1 %5, label %setup_ompi_frameworks.exit, label %6

6:                                                ; preds = %3
  %7 = tail call ptr @PMIx_Argv_split(ptr noundef nonnull %4, i32 noundef 44) #17
  %.not.i = icmp eq ptr %7, null
  br i1 %.not.i, label %setup_ompi_frameworks.exit, label %8

8:                                                ; preds = %6
  store ptr %7, ptr @ompi_frameworks, align 8, !tbaa !41
  br label %setup_ompi_frameworks.exit

setup_ompi_frameworks.exit:                       ; preds = %1, %3, %6, %8
  %9 = getelementptr inbounds nuw i8, ptr %0, i64 120
  %10 = getelementptr inbounds nuw i8, ptr %0, i64 240
  %11 = load ptr, ptr %10, align 8, !tbaa !31
  %.not25 = icmp eq ptr %11, %9
  br i1 %.not25, label %._crit_edge, label %.preheader.lr.ph

.preheader.lr.ph:                                 ; preds = %setup_ompi_frameworks.exit
  %12 = getelementptr inbounds nuw i8, ptr %0, i64 264
  %13 = load ptr, ptr @ompi_frameworks, align 8, !tbaa !41
  %14 = load ptr, ptr %13, align 8, !tbaa !43
  %15 = icmp eq ptr %14, null
  br i1 %15, label %._crit_edge, label %.preheader

.preheaderthread-pre-split:                       ; preds = %.loopexit
  %.pr = load ptr, ptr %42, align 8, !tbaa !43
  br label %.preheader

.preheader:                                       ; preds = %.preheader.lr.ph, %.preheaderthread-pre-split
  %16 = phi ptr [ %.pr, %.preheaderthread-pre-split ], [ %14, %.preheader.lr.ph ]
  %17 = phi ptr [ %42, %.preheaderthread-pre-split ], [ %13, %.preheader.lr.ph ]
  %.01726 = phi ptr [ %.01628, %.preheaderthread-pre-split ], [ %11, %.preheader.lr.ph ]
  %.016.in27 = getelementptr inbounds nuw i8, ptr %.01726, i64 120
  %.01628 = load ptr, ptr %.016.in27, align 8, !tbaa !33
  %.not1921 = icmp eq ptr %16, null
  br i1 %.not1921, label %.loopexit, label %.lr.ph

.lr.ph:                                           ; preds = %.preheader
  %18 = getelementptr inbounds nuw i8, ptr %.01726, i64 144
  %19 = load ptr, ptr %18, align 8, !tbaa !70
  br label %23

20:                                               ; preds = %23
  %indvars.iv.next = add nuw nsw i64 %indvars.iv, 1
  %21 = getelementptr inbounds nuw ptr, ptr %17, i64 %indvars.iv.next
  %22 = load ptr, ptr %21, align 8, !tbaa !43
  %.not19 = icmp eq ptr %22, null
  br i1 %.not19, label %.loopexit, label %23, !llvm.loop !74

23:                                               ; preds = %.lr.ph, %20
  %indvars.iv = phi i64 [ 0, %.lr.ph ], [ %indvars.iv.next, %20 ]
  %24 = phi ptr [ %16, %.lr.ph ], [ %22, %20 ]
  %25 = call i64 @strlen(ptr noundef nonnull dereferenceable(1) %24) #21
  %26 = call i32 @strncmp(ptr noundef %19, ptr noundef nonnull %24, i64 noundef %25) #21
  %27 = icmp eq i32 %26, 0
  br i1 %27, label %28, label %20

28:                                               ; preds = %23
  %29 = getelementptr inbounds nuw i8, ptr %.01726, i64 128
  %30 = load ptr, ptr %29, align 8, !tbaa !32
  %31 = getelementptr inbounds nuw i8, ptr %30, i64 120
  store volatile ptr %.01628, ptr %31, align 8, !tbaa !33
  %32 = getelementptr inbounds nuw i8, ptr %.01628, i64 128
  store volatile ptr %30, ptr %32, align 8, !tbaa !32
  %33 = load volatile i64, ptr %12, align 8, !tbaa !30
  %34 = add i64 %33, -1
  store volatile i64 %34, ptr %12, align 8, !tbaa !30
  %35 = call i32 (ptr, ptr, ...) @pmix_asprintf(ptr noundef nonnull %2, ptr noundef nonnull @.str.24, ptr noundef %19) #17
  %36 = load ptr, ptr %18, align 8, !tbaa !70
  call void @free(ptr noundef %36) #17
  %37 = load ptr, ptr %2, align 8, !tbaa !43
  store ptr %37, ptr %18, align 8, !tbaa !70
  %38 = load ptr, ptr getelementptr inbounds nuw (i8, ptr @myenvars, i64 248), align 8, !tbaa !32
  store ptr %38, ptr %29, align 8, !tbaa !32
  %39 = getelementptr inbounds nuw i8, ptr %38, i64 120
  store volatile ptr %.01726, ptr %39, align 8, !tbaa !33
  store ptr getelementptr inbounds nuw (i8, ptr @myenvars, i64 120), ptr %.016.in27, align 8, !tbaa !33
  store ptr %.01726, ptr getelementptr inbounds nuw (i8, ptr @myenvars, i64 248), align 8, !tbaa !32
  %40 = load volatile i64, ptr getelementptr inbounds nuw (i8, ptr @myenvars, i64 264), align 8, !tbaa !30
  %41 = add i64 %40, 1
  store volatile i64 %41, ptr getelementptr inbounds nuw (i8, ptr @myenvars, i64 264), align 8, !tbaa !30
  %.pre = load ptr, ptr @ompi_frameworks, align 8, !tbaa !41
  br label %.loopexit

.loopexit:                                        ; preds = %20, %.preheader, %28
  %42 = phi ptr [ %17, %.preheader ], [ %.pre, %28 ], [ %17, %20 ]
  %.not = icmp eq ptr %.01628, %9
  br i1 %.not, label %._crit_edge, label %.preheaderthread-pre-split, !llvm.loop !75

._crit_edge:                                      ; preds = %.loopexit, %.preheader.lr.ph, %setup_ompi_frameworks.exit
  call void @llvm.lifetime.end.p0(i64 8, ptr nonnull %2) #17
  ret void
}